target datalayout = "e-m:e-p270:32:32-p271:32:32-p272:64:64-i64:64-i128:128-f80:128-n8:16:32:64-S128"
target triple = "x86_64-pc-linux-gnu"

%"class.llvm::object::GenericBinaryError" = type { %"class.llvm::ErrorInfo", %"class.std::__cxx11::basic_string" }
%"class.llvm::ErrorInfo" = type { %"class.llvm::object::BinaryError" }
%"class.llvm::object::BinaryError" = type { %"class.llvm::ErrorInfo.0" }
%"class.llvm::ErrorInfo.0" = type { %"class.llvm::ECError" }
%"class.llvm::ECError" = type { %"class.llvm::ErrorInfo.1", %"class.std::error_code" }
%"class.llvm::ErrorInfo.1" = type { %"class.llvm::ErrorInfoBase" }
%"class.llvm::ErrorInfoBase" = type { ptr }
%"class.std::error_code" = type { i32, ptr }
%"class.std::__cxx11::basic_string" = type { %"struct.std::__cxx11::basic_string<char>::_Alloc_hider", i64, %union.anon }
%"struct.std::__cxx11::basic_string<char>::_Alloc_hider" = type { ptr }
%union.anon = type { i64, [8 x i8] }

@_ZZN4llvm6object15object_categoryEvE14error_category = internal global { ptr } { ptr getelementptr inbounds inrange(-16, 64) ({ [10 x ptr] }, ptr @_ZTVN12_GLOBAL__N_122_object_error_categoryE, i32 0, i32 0, i32 2) }, align 8
@_ZGVZN4llvm6object15object_categoryEvE14error_category = internal global i64 0, align 8
@__dso_handle = external hidden global i8
@_ZTVN4llvm7ECErrorE = external unnamed_addr constant { [10 x ptr] }, align 8
@_ZTVN4llvm13ErrorInfoBaseE = external unnamed_addr constant { [10 x ptr] }, align 8

; Function Attrs: mustprogress nounwind uwtable
define linkonce_odr hidden void @_ZN4llvm13ErrorInfoBaseC2Ev(ptr noundef nonnull align 8 dereferenceable(8) %0) unnamed_addr #0 comdat align 2 {
  %2 = alloca ptr, align 8
  store ptr %0, ptr %2, align 8
  %3 = load ptr, ptr %2, align 8
  store ptr getelementptr inbounds inrange(-16, 64) ({ [10 x ptr] }, ptr @_ZTVN4llvm13ErrorInfoBaseE, i32 0, i32 0, i32 2), ptr %3, align 8
  ret void
}

; Function Attrs: mustprogress nounwind uwtable
define linkonce_odr hidden void @_ZNSt10error_codeC2Ev(ptr noundef nonnull align 8 dereferenceable(16) %0) unnamed_addr #0 comdat align 2 {
  %2 = alloca ptr, align 8
  store ptr %0, ptr %2, align 8
  %3 = load ptr, ptr %2, align 8
  %4 = getelementptr inbounds nuw %"class.std::error_code", ptr %3, i32 0, i32 0
  store i32 0, ptr %4, align 8
  %5 = getelementptr inbounds nuw %"class.std::error_code", ptr %3, i32 0, i32 1
  %6 = call noundef nonnull align 8 dereferenceable(8) ptr @_ZNSt3_V215system_categoryEv() #12
  store ptr %6, ptr %5, align 8
  ret void
}

; Function Attrs: mustprogress nounwind uwtable
define linkonce_odr hidden void @_ZN4llvm9ErrorInfoINS_7ECErrorENS_13ErrorInfoBaseEEC2Ev(ptr noundef nonnull align 8 dereferenceable(8) %0) unnamed_addr #0 comdat align 2 {
  %2 = alloca ptr, align 8
  store ptr %0, ptr %2, align 8
  %3 = load ptr, ptr %2, align 8
  call void @_ZN4llvm13ErrorInfoBaseC2Ev(ptr noundef nonnull align 8 dereferenceable(8) %3) #2
  store ptr getelementptr inbounds inrange(-16, 64) ({ [10 x ptr] }, ptr @_ZTVN4llvm9ErrorInfoINS_7ECErrorENS_13ErrorInfoBaseEEE, i32 0, i32 0, i32 2), ptr %3, align 8
  ret void
}

; Function Attrs: mustprogress nounwind uwtable
define linkonce_odr hidden void @_ZNSt10error_codeC2EiRKNSt3_V214error_categoryE(ptr noundef nonnull align 8 dereferenceable(16) %0, i32 noundef %1, ptr noundef nonnull align 8 dereferenceable(8) %2) unnamed_addr #0 comdat align 2 {
  %4 = alloca ptr, align 8
  %5 = alloca i32, align 4
  %6 = alloca ptr, align 8
  store ptr %0, ptr %4, align 8
  store i32 %1, ptr %5, align 4
  store ptr %2, ptr %6, align 8
  %7 = load ptr, ptr %4, align 8
  %8 = getelementptr inbounds nuw %"class.std::error_code", ptr %7, i32 0, i32 0
  %9 = load i32, ptr %5, align 4
  store i32 %9, ptr %8, align 8
  %10 = getelementptr inbounds nuw %"class.std::error_code", ptr %7, i32 0, i32 1
  %11 = load ptr, ptr %6, align 8
  store ptr %11, ptr %10, align 8
  ret void
}

; Function Attrs: mustprogress nounwind uwtable
define dso_local noundef nonnull align 8 dereferenceable(8) ptr @_ZN4llvm6object15object_categoryEv() #0 {
  %1 = load atomic i8, ptr @_ZGVZN4llvm6object15object_categoryEvE14error_category acquire, align 8
  %2 = icmp eq i8 %1, 0
  br i1 %2, label %3, label %8, !prof !4

3:                                                ; preds = %0
  %4 = call i32 @__cxa_guard_acquire(ptr @_ZGVZN4llvm6object15object_categoryEvE14error_category) #2
  %5 = icmp ne i32 %4, 0
  br i1 %5, label %6, label %8

6:                                                ; preds = %3
  %7 = call i32 @__cxa_atexit(ptr @_ZN12_GLOBAL__N_122_object_error_categoryD2Ev, ptr @_ZZN4llvm6object15object_categoryEvE14error_category, ptr @__dso_handle) #2
  call void @__cxa_guard_release(ptr @_ZGVZN4llvm6object15object_categoryEvE14error_category) #2
  br label %8

8:                                                ; preds = %6, %3, %0
  ret ptr @_ZZN4llvm6object15object_categoryEvE14error_category
}

; Function Attrs: mustprogress nounwind uwtable
define linkonce_odr hidden void @_ZN4llvm7ECErrorC2Ev(ptr noundef nonnull align 8 dereferenceable(24) %0) unnamed_addr #0 comdat align 2 {
  %2 = alloca ptr, align 8
  store ptr %0, ptr %2, align 8
  %3 = load ptr, ptr %2, align 8
  call void @_ZN4llvm9ErrorInfoINS_7ECErrorENS_13ErrorInfoBaseEEC2Ev(ptr noundef nonnull align 8 dereferenceable(8) %3) #2
  store ptr getelementptr inbounds inrange(-16, 64) ({ [10 x ptr] }, ptr @_ZTVN4llvm7ECErrorE, i32 0, i32 0, i32 2), ptr %3, align 8
  %4 = getelementptr inbounds nuw %"class.llvm::ECError", ptr %3, i32 0, i32 1
  call void @_ZNSt10error_codeC2Ev(ptr noundef nonnull align 8 dereferenceable(16) %4) #2
  ret void
}

; Function Attrs: mustprogress nounwind uwtable
define linkonce_odr hidden void @_ZN4llvm7ECError12setErrorCodeESt10error_code(ptr noundef nonnull align 8 dereferenceable(24) %0, i32 %1, ptr %2) #0 comdat align 2 {
  %4 = alloca %"class.std::error_code", align 8
  %5 = alloca ptr, align 8
  %6 = getelementptr inbounds nuw { i32, ptr }, ptr %4, i32 0, i32 0
  store i32 %1, ptr %6, align 8
  %7 = getelementptr inbounds nuw { i32, ptr }, ptr %4, i32 0, i32 1
  store ptr %2, ptr %7, align 8
  store ptr %0, ptr %5, align 8
  %8 = load ptr, ptr %5, align 8
  %9 = getelementptr inbounds nuw %"class.llvm::ECError", ptr %8, i32 0, i32 1
  call void @llvm.memcpy.p0.p0.i64(ptr align 8 %9, ptr align 8 %4, i64 16, i1 false)
  ret void
}

; Function Attrs: mustprogress nounwind uwtable
define linkonce_odr hidden { i32, ptr } @_ZN4llvm6object15make_error_codeENS0_12object_errorE(i32 noundef %0) #0 comdat {
  %2 = alloca %"class.std::error_code", align 8
  %3 = alloca i32, align 4
  store i32 %0, ptr %3, align 4
  %4 = load i32, ptr %3, align 4
  %5 = call noundef nonnull align 8 dereferenceable(8) ptr @_ZN4llvm6object15object_categoryEv()
  call void @_ZNSt10error_codeC2EiRKNSt3_V214error_categoryE(ptr noundef nonnull align 8 dereferenceable(16) %2, i32 noundef %4, ptr noundef nonnull align 8 dereferenceable(8) %5) #2
  %6 = load { i32, ptr }, ptr %2, align 8
  ret { i32, ptr } %6
}

; Function Attrs: mustprogress nounwind uwtable
define linkonce_odr hidden void @_ZN4llvm9ErrorInfoINS_6object11BinaryErrorENS_7ECErrorEEC2Ev(ptr noundef nonnull align 8 dereferenceable(24) %0) unnamed_addr #0 comdat align 2 {
  %2 = alloca ptr, align 8
  store ptr %0, ptr %2, align 8
  %3 = load ptr, ptr %2, align 8
  call void @_ZN4llvm7ECErrorC2Ev(ptr noundef nonnull align 8 dereferenceable(24) %3) #2
  store ptr getelementptr inbounds inrange(-16, 64) ({ [10 x ptr] }, ptr @_ZTVN4llvm9ErrorInfoINS_6object11BinaryErrorENS_7ECErrorEEE, i32 0, i32 0, i32 2), ptr %3, align 8
  ret void
}

; Function Attrs: mustprogress nounwind uwtable
define linkonce_odr hidden void @_ZN4llvm6object11BinaryErrorC2Ev(ptr noundef nonnull align 8 dereferenceable(24) %0) unnamed_addr #0 comdat align 2 {
  %2 = alloca ptr, align 8
  %3 = alloca %"class.std::error_code", align 8
  store ptr %0, ptr %2, align 8
  %4 = load ptr, ptr %2, align 8
  call void @_ZN4llvm9ErrorInfoINS_6object11BinaryErrorENS_7ECErrorEEC2Ev(ptr noundef nonnull align 8 dereferenceable(24) %4) #2
  store ptr getelementptr inbounds inrange(-16, 64) ({ [10 x ptr] }, ptr @_ZTVN4llvm6object11BinaryErrorE, i32 0, i32 0, i32 2), ptr %4, align 8
  %5 = call { i32, ptr } @_ZN4llvm6object15make_error_codeENS0_12object_errorE(i32 noundef 3)
  %6 = getelementptr inbounds nuw { i32, ptr }, ptr %3, i32 0, i32 0
  %7 = extractvalue { i32, ptr } %5, 0
  store i32 %7, ptr %6, align 8
  %8 = getelementptr inbounds nuw { i32, ptr }, ptr %3, i32 0, i32 1
  %9 = extractvalue { i32, ptr } %5, 1
  store ptr %9, ptr %8, align 8
  %10 = getelementptr inbounds nuw { i32, ptr }, ptr %3, i32 0, i32 0
  %11 = load i32, ptr %10, align 8
  %12 = getelementptr inbounds nuw { i32, ptr }, ptr %3, i32 0, i32 1
  %13 = load ptr, ptr %12, align 8
  call void @_ZN4llvm7ECError12setErrorCodeESt10error_code(ptr noundef nonnull align 8 dereferenceable(24) %4, i32 %11, ptr %13)
  ret void
}

; Function Attrs: mustprogress nounwind uwtable
define linkonce_odr hidden void @_ZN4llvm9ErrorInfoINS_6object18GenericBinaryErrorENS1_11BinaryErrorEEC2Ev(ptr noundef nonnull align 8 dereferenceable(24) %0) unnamed_addr #0 comdat align 2 {
  %2 = alloca ptr, align 8
  store ptr %0, ptr %2, align 8
  %3 = load ptr, ptr %2, align 8
  call void @_ZN4llvm6object11BinaryErrorC2Ev(ptr noundef nonnull align 8 dereferenceable(24) %3)
  store ptr getelementptr inbounds inrange(-16, 64) ({ [10 x ptr] }, ptr @_ZTVN4llvm9ErrorInfoINS_6object18GenericBinaryErrorENS1_11BinaryErrorEEE, i32 0, i32 0, i32 2), ptr %3, align 8
  ret void
}

; Function Attrs: mustprogress nounwind uwtable
define dso_local void @_ZN4llvm6object18GenericBinaryErrorC2ERKNS_5TwineE(ptr noundef nonnull align 8 dereferenceable(56) %0, ptr noundef nonnull align 8 dereferenceable(34) %1) unnamed_addr #0 align 2 {
  %3 = alloca ptr, align 8
  %4 = alloca ptr, align 8
  store ptr %0, ptr %3, align 8
  store ptr %1, ptr %4, align 8
  %5 = load ptr, ptr %3, align 8
  call void @_ZN4llvm9ErrorInfoINS_6object18GenericBinaryErrorENS1_11BinaryErrorEEC2Ev(ptr noundef nonnull align 8 dereferenceable(24) %5)
  store ptr getelementptr inbounds inrange(-16, 64) ({ [10 x ptr] }, ptr @_ZTVN4llvm6object18GenericBinaryErrorE, i32 0, i32 0, i32 2), ptr %5, align 8
  %6 = getelementptr inbounds nuw %"class.llvm::object::GenericBinaryError", ptr %5, i32 0, i32 1
  %7 = load ptr, ptr %4, align 8
  call void @_ZNK4llvm5Twine3strB5cxx11Ev(ptr dead_on_unwind writable sret(%"class.std::__cxx11::basic_string") align 8 %6, ptr noundef nonnull align 8 dereferenceable(34) %7)
  ret void
}