; Function Attrs: mustprogress nounwind uwtable
define dso_local void @_ZN4llvm6object18GenericBinaryErrorC2ERKNS_5TwineE(ptr noundef nonnull align 8 dereferenceable(56) %0, ptr noundef nonnull align 8 dereferenceable(34) %1) unnamed_addr #1 align 2 {
  %3 = getelementptr inbounds nuw i8, ptr %0, i64 8
  store i32 0, ptr %3, align 8
  %4 = getelementptr inbounds i8, ptr %0, i64 16
  %5 = tail call noundef nonnull align 8 dereferenceable(8) ptr @_ZNSt3_V215system_categoryEv() #14
  store ptr %5, ptr %4, align 8
  store ptr getelementptr inbounds inrange(-16, 64) (i8, ptr @_ZTVN4llvm6object11BinaryErrorE, i64 16), ptr %0, align 8
  %6 = load atomic i8, ptr @_ZGVZN4llvm6object15object_categoryEvE14error_category acquire, align 8
  %7 = icmp eq i8 %6, 0
  br i1 %7, label %8, label %_ZN4llvm9ErrorInfoINS_6object18GenericBinaryErrorENS1_11BinaryErrorEEC2Ev.exit, !prof !4

8:                                                ; preds = %2
  %9 = tail call i32 @__cxa_guard_acquire(ptr nonnull @_ZGVZN4llvm6object15object_categoryEvE14error_category) #15
  %.not.i.i.i.i = icmp eq i32 %9, 0
  br i1 %.not.i.i.i.i, label %_ZN4llvm9ErrorInfoINS_6object18GenericBinaryErrorENS1_11BinaryErrorEEC2Ev.exit, label %10

10:                                               ; preds = %8
  %11 = tail call i32 @__cxa_atexit(ptr nonnull @_ZN12_GLOBAL__N_122_object_error_categoryD2Ev, ptr nonnull @_ZZN4llvm6object15object_categoryEvE14error_category, ptr nonnull @__dso_handle) #15
  tail call void @__cxa_guard_release(ptr nonnull @_ZGVZN4llvm6object15object_categoryEvE14error_category) #15
  br label %_ZN4llvm9ErrorInfoINS_6object18GenericBinaryErrorENS1_11BinaryErrorEEC2Ev.exit

_ZN4llvm9ErrorInfoINS_6object18GenericBinaryErrorENS1_11BinaryErrorEEC2Ev.exit: ; preds = %2, %8, %10
  store i32 3, ptr %3, align 8
  store ptr @_ZZN4llvm6object15object_categoryEvE14error_category, ptr %4, align 8
  store ptr getelementptr inbounds inrange(-16, 64) (i8, ptr @_ZTVN4llvm6object18GenericBinaryErrorE, i64 16), ptr %0, align 8
  %12 = getelementptr inbounds nuw i8, ptr %0, i64 24
  tail call void @_ZNK4llvm5Twine3strB5cxx11Ev(ptr dead_on_unwind nonnull writable sret(%"class.std::__cxx11::basic_string") align 8 %12, ptr noundef nonnull align 8 dereferenceable(34) %1) #15
  ret void
}